; Function Attrs: nounwind uwtable
define noalias nonnull ptr @l_Float32_ofBinaryScientific___boxed(ptr noundef %0, ptr noundef %1) local_unnamed_addr #0 {
  %3 = tail call float @l_Float32_ofBinaryScientific(ptr noundef %0, ptr noundef %1)
  %4 = ptrtoint ptr %1 to i64
  %5 = and i64 %4, 1
  %.not = icmp eq i64 %5, 0
  br i1 %.not, label %6, label %lean_dec.exit6

6:                                                ; preds = %2
  %7 = load i32, ptr %1, align 4, !tbaa !5
  %8 = icmp sgt i32 %7, 1
  br i1 %8, label %9, label %11, !prof !10

9:                                                ; preds = %6
  %10 = add nsw i32 %7, -1
  store i32 %10, ptr %1, align 4, !tbaa !5
  br label %lean_dec.exit6

11:                                               ; preds = %6
  %.not.i = icmp eq i32 %7, 0
  br i1 %.not.i, label %lean_dec.exit6, label %12

12:                                               ; preds = %11
  tail call void @lean_dec_ref_cold(ptr noundef nonnull %1) #4
  br label %lean_dec.exit6

lean_dec.exit6:                                   ; preds = %12, %11, %9, %2
  %13 = ptrtoint ptr %0 to i64
  %14 = and i64 %13, 1
  %.not9 = icmp eq i64 %14, 0
  br i1 %.not9, label %15, label %lean_dec.exit

15:                                               ; preds = %lean_dec.exit6
  %16 = load i32, ptr %0, align 4, !tbaa !5
  %17 = icmp sgt i32 %16, 1
  br i1 %17, label %18, label %20, !prof !10

18:                                               ; preds = %15
  %19 = add nsw i32 %16, -1
  store i32 %19, ptr %0, align 4, !tbaa !5
  br label %lean_dec.exit

20:                                               ; preds = %15
  %.not.i7 = icmp eq i32 %16, 0
  br i1 %.not.i7, label %lean_dec.exit, label %21

21:                                               ; preds = %20
  tail call void @lean_dec_ref_cold(ptr noundef nonnull %0) #4
  br label %lean_dec.exit

lean_dec.exit:                                    ; preds = %21, %20, %18, %lean_dec.exit6
  tail call void @lean_inc_heartbeat() #4
  %22 = tail call noalias ptr @mi_malloc_small(i64 noundef 16) #4
  %23 = icmp eq ptr %22, null
  br i1 %23, label %24, label %lean_box_float32.exit

24:                                               ; preds = %lean_dec.exit
  tail call void @lean_internal_panic_out_of_memory() #5
  unreachable

lean_box_float32.exit:                            ; preds = %lean_dec.exit
  %25 = getelementptr inbounds nuw i8, ptr %22, i64 4
  %26 = getelementptr inbounds nuw i8, ptr %22, i64 8
  store i64 0, ptr %26, align 8, !tbaa !15
  store i32 1, ptr %22, align 4, !tbaa !5
  store i32 16, ptr %25, align 4
  store float %3, ptr %26, align 4, !tbaa !17
  ret ptr %22
}